target datalayout = "e-m:e-p270:32:32-p271:32:32-p272:64:64-i64:64-i128:128-f80:128-n8:16:32:64-S128"
target triple = "x86_64-pc-linux-gnu"

%"class.llvm::Dependence" = type { ptr, ptr, ptr, ptr, ptr }
%"class.std::unique_ptr.176" = type { %"struct.std::__uniq_ptr_data.177" }
%"struct.std::__uniq_ptr_data.177" = type { %"class.std::__uniq_ptr_impl.178" }
%"class.std::__uniq_ptr_impl.178" = type { %"class.std::tuple.179" }
%"class.std::tuple.179" = type { %"struct.std::_Tuple_impl.180" }
%"struct.std::_Tuple_impl.180" = type { %"struct.std::_Head_base.183" }
%"struct.std::_Head_base.183" = type { ptr }
%"class.llvm::FullDependence" = type { %"class.llvm::Dependence", i16, i8, i8, %"class.std::unique_ptr.176" }
%"struct.llvm::Dependence::DVEntry" = type { i8, ptr }

; Function Attrs: mustprogress nounwind uwtable
define linkonce_odr hidden noundef nonnull align 8 dereferenceable(8) ptr @_ZNSt10_Head_baseILm0EPN4llvm10Dependence7DVEntryELb0EE7_M_headERKS4_(ptr noundef nonnull align 8 dereferenceable(8) %0) #1 comdat align 2 {
  %2 = alloca ptr, align 8
  store ptr %0, ptr %2, align 8
  %3 = load ptr, ptr %2, align 8
  %4 = getelementptr inbounds nuw %"struct.std::_Head_base.183", ptr %3, i32 0, i32 0
  ret ptr %4
}

; Function Attrs: mustprogress nounwind uwtable
define linkonce_odr hidden noundef nonnull align 8 dereferenceable(8) ptr @_ZNSt11_Tuple_implILm0EJPN4llvm10Dependence7DVEntryESt14default_deleteIA_S2_EEE7_M_headERKS7_(ptr noundef nonnull align 8 dereferenceable(8) %0) #1 comdat align 2 {
  %2 = alloca ptr, align 8
  store ptr %0, ptr %2, align 8
  %3 = load ptr, ptr %2, align 8
  %4 = call noundef nonnull align 8 dereferenceable(8) ptr @_ZNSt10_Head_baseILm0EPN4llvm10Dependence7DVEntryELb0EE7_M_headERKS4_(ptr noundef nonnull align 8 dereferenceable(8) %3) #2
  ret ptr %4
}

; Function Attrs: mustprogress nounwind uwtable
define linkonce_odr noundef nonnull align 8 dereferenceable(8) ptr @_ZSt12__get_helperILm0EPN4llvm10Dependence7DVEntryEJSt14default_deleteIA_S2_EEERKT0_RKSt11_Tuple_implIXT_EJS7_DpT1_EE(ptr noundef nonnull align 8 dereferenceable(8) %0) #1 comdat {
  %2 = alloca ptr, align 8
  store ptr %0, ptr %2, align 8
  %3 = load ptr, ptr %2, align 8
  %4 = call noundef nonnull align 8 dereferenceable(8) ptr @_ZNSt11_Tuple_implILm0EJPN4llvm10Dependence7DVEntryESt14default_deleteIA_S2_EEE7_M_headERKS7_(ptr noundef nonnull align 8 dereferenceable(8) %3) #2
  ret ptr %4
}

; Function Attrs: mustprogress nounwind uwtable
define linkonce_odr noundef nonnull align 8 dereferenceable(8) ptr @_ZSt3getILm0EJPN4llvm10Dependence7DVEntryESt14default_deleteIA_S2_EEERKNSt13tuple_elementIXT_ESt5tupleIJDpT0_EEE4typeERKSB_(ptr noundef nonnull align 8 dereferenceable(8) %0) #1 comdat {
  %2 = alloca ptr, align 8
  store ptr %0, ptr %2, align 8
  %3 = load ptr, ptr %2, align 8
  %4 = call noundef nonnull align 8 dereferenceable(8) ptr @_ZSt12__get_helperILm0EPN4llvm10Dependence7DVEntryEJSt14default_deleteIA_S2_EEERKT0_RKSt11_Tuple_implIXT_EJS7_DpT1_EE(ptr noundef nonnull align 8 dereferenceable(8) %3) #2
  ret ptr %4
}

; Function Attrs: mustprogress nounwind uwtable
define linkonce_odr hidden noundef ptr @_ZNKSt15__uniq_ptr_implIN4llvm10Dependence7DVEntryESt14default_deleteIA_S2_EE6_M_ptrEv(ptr noundef nonnull align 8 dereferenceable(8) %0) #1 comdat align 2 {
  %2 = alloca ptr, align 8
  store ptr %0, ptr %2, align 8
  %3 = load ptr, ptr %2, align 8
  %4 = getelementptr inbounds nuw %"class.std::__uniq_ptr_impl.178", ptr %3, i32 0, i32 0
  %5 = call noundef nonnull align 8 dereferenceable(8) ptr @_ZSt3getILm0EJPN4llvm10Dependence7DVEntryESt14default_deleteIA_S2_EEERKNSt13tuple_elementIXT_ESt5tupleIJDpT0_EEE4typeERKSB_(ptr noundef nonnull align 8 dereferenceable(8) %4) #2
  %6 = load ptr, ptr %5, align 8
  ret ptr %6
}

; Function Attrs: mustprogress nounwind uwtable
define linkonce_odr hidden noundef ptr @_ZNKSt10unique_ptrIA_N4llvm10Dependence7DVEntryESt14default_deleteIS3_EE3getEv(ptr noundef nonnull align 8 dereferenceable(8) %0) #1 comdat align 2 {
  %2 = alloca ptr, align 8
  store ptr %0, ptr %2, align 8
  %3 = load ptr, ptr %2, align 8
  %4 = getelementptr inbounds nuw %"class.std::unique_ptr.176", ptr %3, i32 0, i32 0
  %5 = call noundef ptr @_ZNKSt15__uniq_ptr_implIN4llvm10Dependence7DVEntryESt14default_deleteIA_S2_EE6_M_ptrEv(ptr noundef nonnull align 8 dereferenceable(8) %4) #2
  ret ptr %5
}

; Function Attrs: mustprogress nounwind uwtable
define linkonce_odr hidden noundef nonnull align 8 dereferenceable(16) ptr @_ZNKSt10unique_ptrIA_N4llvm10Dependence7DVEntryESt14default_deleteIS3_EEixEm(ptr noundef nonnull align 8 dereferenceable(8) %0, i64 noundef %1) #1 comdat align 2 {
  %3 = alloca ptr, align 8
  %4 = alloca i64, align 8
  store ptr %0, ptr %3, align 8
  store i64 %1, ptr %4, align 8
  %5 = load ptr, ptr %3, align 8
  br label %6

6:                                                ; preds = %2
  br label %7

7:                                                ; preds = %6
  %8 = call noundef ptr @_ZNKSt10unique_ptrIA_N4llvm10Dependence7DVEntryESt14default_deleteIS3_EE3getEv(ptr noundef nonnull align 8 dereferenceable(8) %5) #2
  %9 = load i64, ptr %4, align 8
  %10 = getelementptr inbounds %"struct.llvm::Dependence::DVEntry", ptr %8, i64 %9
  ret ptr %10
}

; Function Attrs: mustprogress nounwind uwtable
define dso_local noundef ptr @_ZNK4llvm14FullDependence11getDistanceEj(ptr noundef nonnull align 8 dereferenceable(56) %0, i32 noundef %1) unnamed_addr #1 align 2 {
  %3 = alloca ptr, align 8
  %4 = alloca i32, align 4
  store ptr %0, ptr %3, align 8
  store i32 %1, ptr %4, align 4
  %5 = load ptr, ptr %3, align 8
  %6 = getelementptr inbounds nuw %"class.llvm::FullDependence", ptr %5, i32 0, i32 4
  %7 = load i32, ptr %4, align 4
  %8 = sub i32 %7, 1
  %9 = zext i32 %8 to i64
  %10 = call noundef nonnull align 8 dereferenceable(16) ptr @_ZNKSt10unique_ptrIA_N4llvm10Dependence7DVEntryESt14default_deleteIS3_EEixEm(ptr noundef nonnull align 8 dereferenceable(8) %6, i64 noundef %9)
  %11 = getelementptr inbounds nuw %"struct.llvm::Dependence::DVEntry", ptr %10, i32 0, i32 1
  %12 = load ptr, ptr %11, align 8
  ret ptr %12
}